target datalayout = "e-m:e-p270:32:32-p271:32:32-p272:64:64-i64:64-i128:128-f80:128-n8:16:32:64-S128"
target triple = "x86_64-pc-linux-gnu"

%struct.prov_gcm_ctx_st = type { i32, i64, i64, i64, i64, i64, i64, i64, i64, i64, i32, i8, [128 x i8], [16 x i8], ptr, ptr, %struct.gcm128_context, ptr }
%struct.gcm128_context = type { %union.anon, %union.anon, %union.anon, %union.anon, %union.anon, %union.anon, [16 x %struct.u128], %struct.gcm_funcs_st, i32, i32, ptr, ptr, [48 x i8] }
%union.anon = type { [2 x i64] }
%struct.u128 = type { i64, i64 }
%struct.gcm_funcs_st = type { ptr, ptr, ptr }

; Function Attrs: nounwind uwtable
define internal i32 @vaes_gcm_cipherupdate(ptr noundef %0, ptr noundef %1, i64 noundef %2, ptr noundef %3) #0 {
  %5 = alloca i32, align 4
  %6 = alloca ptr, align 8
  %7 = alloca ptr, align 8
  %8 = alloca i64, align 8
  %9 = alloca ptr, align 8
  %10 = alloca ptr, align 8
  %11 = alloca i64, align 8
  %12 = alloca i32, align 4
  store ptr %0, ptr %6, align 8, !tbaa !9
  store ptr %1, ptr %7, align 8, !tbaa !12
  store i64 %2, ptr %8, align 8, !tbaa !3
  store ptr %3, ptr %9, align 8, !tbaa !12
  call void @llvm.lifetime.start.p0(i64 8, ptr %10) #5
  %13 = load ptr, ptr %6, align 8, !tbaa !9
  %14 = getelementptr inbounds nuw %struct.prov_gcm_ctx_st, ptr %13, i32 0, i32 16
  store ptr %14, ptr %10, align 8, !tbaa !14
  call void @llvm.lifetime.start.p0(i64 8, ptr %11) #5
  %15 = load ptr, ptr %10, align 8, !tbaa !14
  %16 = getelementptr inbounds nuw %struct.gcm128_context, ptr %15, i32 0, i32 3
  %17 = getelementptr inbounds [2 x i64], ptr %16, i64 0, i64 1
  %18 = load i64, ptr %17, align 8, !tbaa !23
  store i64 %18, ptr %11, align 8, !tbaa !26
  %19 = load i64, ptr %8, align 8, !tbaa !3
  %20 = load i64, ptr %11, align 8, !tbaa !26
  %21 = add i64 %20, %19
  store i64 %21, ptr %11, align 8, !tbaa !26
  %22 = load i64, ptr %11, align 8, !tbaa !26
  %23 = icmp ugt i64 %22, 68719476704
  br i1 %23, label %28, label %24

24:                                               ; preds = %4
  %25 = load i64, ptr %11, align 8, !tbaa !26
  %26 = load i64, ptr %8, align 8, !tbaa !3
  %27 = icmp ult i64 %25, %26
  br i1 %27, label %28, label %29

28:                                               ; preds = %24, %4
  store i32 0, ptr %5, align 4
  store i32 1, ptr %12, align 4
  br label %73

29:                                               ; preds = %24
  %30 = load i64, ptr %11, align 8, !tbaa !26
  %31 = load ptr, ptr %10, align 8, !tbaa !14
  %32 = getelementptr inbounds nuw %struct.gcm128_context, ptr %31, i32 0, i32 3
  %33 = getelementptr inbounds [2 x i64], ptr %32, i64 0, i64 1
  store i64 %30, ptr %33, align 8, !tbaa !23
  %34 = load ptr, ptr %10, align 8, !tbaa !14
  %35 = getelementptr inbounds nuw %struct.gcm128_context, ptr %34, i32 0, i32 9
  %36 = load i32, ptr %35, align 4, !tbaa !24
  %37 = icmp ugt i32 %36, 0
  br i1 %37, label %38, label %45

38:                                               ; preds = %29
  %39 = load ptr, ptr %10, align 8, !tbaa !14
  %40 = getelementptr inbounds nuw %struct.gcm128_context, ptr %39, i32 0, i32 4
  %41 = getelementptr inbounds [2 x i64], ptr %40, i64 0, i64 0
  %42 = load ptr, ptr %10, align 8, !tbaa !14
  call void @ossl_gcm_gmult_avx512(ptr noundef %41, ptr noundef %42)
  %43 = load ptr, ptr %10, align 8, !tbaa !14
  %44 = getelementptr inbounds nuw %struct.gcm128_context, ptr %43, i32 0, i32 9
  store i32 0, ptr %44, align 4, !tbaa !24
  br label %45

45:                                               ; preds = %38, %29
  %46 = load ptr, ptr %6, align 8, !tbaa !9
  %47 = getelementptr inbounds nuw %struct.prov_gcm_ctx_st, ptr %46, i32 0, i32 11
  %48 = load i8, ptr %47, align 4
  %49 = and i8 %48, 1
  %50 = zext i8 %49 to i32
  %51 = icmp ne i32 %50, 0
  br i1 %51, label %52, label %62

52:                                               ; preds = %45
  %53 = load ptr, ptr %10, align 8, !tbaa !14
  %54 = getelementptr inbounds nuw %struct.gcm128_context, ptr %53, i32 0, i32 11
  %55 = load ptr, ptr %54, align 8, !tbaa !20
  %56 = load ptr, ptr %10, align 8, !tbaa !14
  %57 = load ptr, ptr %10, align 8, !tbaa !14
  %58 = getelementptr inbounds nuw %struct.gcm128_context, ptr %57, i32 0, i32 8
  %59 = load ptr, ptr %7, align 8, !tbaa !12
  %60 = load i64, ptr %8, align 8, !tbaa !3
  %61 = load ptr, ptr %9, align 8, !tbaa !12
  call void @ossl_aes_gcm_encrypt_avx512(ptr noundef %55, ptr noundef %56, ptr noundef %58, ptr noundef %59, i64 noundef %60, ptr noundef %61)
  br label %72

62:                                               ; preds = %45
  %63 = load ptr, ptr %10, align 8, !tbaa !14
  %64 = getelementptr inbounds nuw %struct.gcm128_context, ptr %63, i32 0, i32 11
  %65 = load ptr, ptr %64, align 8, !tbaa !20
  %66 = load ptr, ptr %10, align 8, !tbaa !14
  %67 = load ptr, ptr %10, align 8, !tbaa !14
  %68 = getelementptr inbounds nuw %struct.gcm128_context, ptr %67, i32 0, i32 8
  %69 = load ptr, ptr %7, align 8, !tbaa !12
  %70 = load i64, ptr %8, align 8, !tbaa !3
  %71 = load ptr, ptr %9, align 8, !tbaa !12
  call void @ossl_aes_gcm_decrypt_avx512(ptr noundef %65, ptr noundef %66, ptr noundef %68, ptr noundef %69, i64 noundef %70, ptr noundef %71)
  br label %72

72:                                               ; preds = %62, %52
  store i32 1, ptr %5, align 4
  store i32 1, ptr %12, align 4
  br label %73

73:                                               ; preds = %72, %28
  call void @llvm.lifetime.end.p0(i64 8, ptr %11) #5
  call void @llvm.lifetime.end.p0(i64 8, ptr %10) #5
  %74 = load i32, ptr %5, align 4
  ret i32 %74
}