; Function Attrs: nounwind uwtable
define internal range(i32 0, 2) i32 @vaes_gcm_cipherupdate(ptr noundef %0, ptr noundef %1, i64 noundef %2, ptr noundef %3) #0 {
  %5 = getelementptr inbounds nuw i8, ptr %0, i64 248
  %6 = getelementptr inbounds nuw i8, ptr %0, i64 304
  %7 = load i64, ptr %6, align 8, !tbaa !13
  %8 = add i64 %7, %2
  %9 = icmp ugt i64 %8, 68719476704
  %10 = icmp ult i64 %8, %2
  %or.cond = or i1 %9, %10
  br i1 %or.cond, label %25, label %11

11:                                               ; preds = %4
  store i64 %8, ptr %6, align 8, !tbaa !13
  %12 = getelementptr inbounds nuw i8, ptr %0, i64 628
  %13 = load i32, ptr %12, align 4, !tbaa !11
  %.not = icmp eq i32 %13, 0
  br i1 %.not, label %16, label %14

14:                                               ; preds = %11
  %15 = getelementptr inbounds nuw i8, ptr %0, i64 312
  tail call void @ossl_gcm_gmult_avx512(ptr noundef nonnull %15, ptr noundef nonnull %5) #4
  store i32 0, ptr %12, align 4, !tbaa !11
  br label %16

16:                                               ; preds = %14, %11
  %17 = getelementptr inbounds nuw i8, ptr %0, i64 84
  %18 = load i8, ptr %17, align 4
  %19 = and i8 %18, 1
  %.not28 = icmp eq i8 %19, 0
  %20 = getelementptr inbounds nuw i8, ptr %0, i64 640
  %21 = load ptr, ptr %20, align 8, !tbaa !7
  %22 = getelementptr inbounds nuw i8, ptr %0, i64 624
  br i1 %.not28, label %24, label %23

23:                                               ; preds = %16
  tail call void @ossl_aes_gcm_encrypt_avx512(ptr noundef %21, ptr noundef nonnull %5, ptr noundef nonnull %22, ptr noundef %1, i64 noundef %2, ptr noundef %3) #4
  br label %25

24:                                               ; preds = %16
  tail call void @ossl_aes_gcm_decrypt_avx512(ptr noundef %21, ptr noundef nonnull %5, ptr noundef nonnull %22, ptr noundef %1, i64 noundef %2, ptr noundef %3) #4
  br label %25

25:                                               ; preds = %23, %24, %4
  %.0 = phi i32 [ 0, %4 ], [ 1, %24 ], [ 1, %23 ]
  ret i32 %.0
}